; Function Attrs: mustprogress uwtable
define dso_local noundef zeroext i1 @_ZN19cmFindLibraryHelper14CheckDirectoryERKNSt7__cxx1112basic_stringIcSt11char_traitsIcESaIcEEE(ptr noundef nonnull align 8 dereferenceable(360) %0, ptr noundef nonnull align 8 dereferenceable(32) %1) local_unnamed_addr #3 align 2 {
  %3 = getelementptr inbounds i8, ptr %0, i64 176
  %4 = load ptr, ptr %3, align 8
  %5 = getelementptr inbounds i8, ptr %0, i64 184
  %6 = load ptr, ptr %5, align 8
  %.not = icmp eq ptr %4, %6
  br i1 %.not, label %._crit_edge, label %.lr.ph

.lr.ph:                                           ; preds = %2, %.lr.ph
  %.sroa.06.09 = phi ptr [ %8, %.lr.ph ], [ %4, %2 ]
  %7 = tail call noundef zeroext i1 @_ZN19cmFindLibraryHelper21CheckDirectoryForNameERKNSt7__cxx1112basic_stringIcSt11char_traitsIcESaIcEEERNS_4NameE(ptr noundef nonnull align 8 dereferenceable(360) %0, ptr noundef nonnull align 8 dereferenceable(32) %1, ptr noundef nonnull align 8 dereferenceable(600) %.sroa.06.09)
  %8 = getelementptr inbounds i8, ptr %.sroa.06.09, i64 600
  %.not12 = icmp eq ptr %8, %6
  %or.cond = select i1 %7, i1 true, i1 %.not12
  br i1 %or.cond, label %._crit_edge, label %.lr.ph

._crit_edge:                                      ; preds = %.lr.ph, %2
  %.lcssa = phi i1 [ false, %2 ], [ %7, %.lr.ph ]
  ret i1 %.lcssa
}